(dp1
I0
(dp2
S'PQ'
p3
I01
sS'Messages'
p4
(dp5
I0
(dp6
S'Body'
p7
S"\n\nBLACKBERRY 12TH ANNIVERSARY PROMOTION \n\nBlackberry Marketing Centre \n67 Shaftesbury Ave \nWestminster, London \nUnited Kingdom W1D 6 \n\nDear Award winner, \n\nWinning Reference Number: BBWINXPWISA79822 \nFile number: BB255/647/390 \n\nThis is to inform you that you have won an Amount of Eight hundred thousand British Pounds (?800,000.00 GBP) in the Blackberry 12th Anniversary Promotion as organized by the Marketing Centre of RIM\xae Inc, held in London, United Kingdom, \n\nBlackBerry is a line of mobile e-mail and Smartphone device developed and designed by Research In Motion (RIM\xae). The Marketing Centre of RIM\xae Inc selected your email address as one of the 120 lucky winners to benefit in this year's promotion. Funds MUST be claimed by the email owner ONLY, within 90 days from the day of notification. \n\nPlease you are advised to file for your claim immediately through Mr. Ivan Trendafilov by providing him with the bellow stated information. Send the details to Email: ivan.trendafilov@gmail.com \n\n1. Full name\x85\x85\x85\x85\x85\x85. \n2. Country of Residence\x85\x85\x85\x85\x85. \n3. Age\x85\x85\x85\x85\x85\x85\x85 \n4. Occupation\x85\x85\x85\x85\x85\x85.. \n5. Nationality \x85\x85\x85\x85\x85\x85 \n6. Mobile/Telephone/Fax Numbers\x85\x85\x85\x85\x85.. \n7. Alternative Email\x85\x85\x85\x85\x85. \n\nFund Disbursement Manager: \nName: Mr. Ivan Trendafilov\nTel: +44 703-174-6799 \nE-Mail: ivan.trendafilov@gmail.com \n\nSincerely Yours, \n\n\n\nDr. Ivan Trendafilov (Zonal Coordinator) \n------------------------------------------------------------------------------------------------------------------------ \nAfter 12 years of establishment, Blackberry Inc is worth over US $43 Billion with over 1.5 Million workers worldwide making it the best of mobile e-mail and Smartphone devices developed and designed by Canadian company Research in Motion (RIM).\n\n______________\n"
p8
sS'Origin'
p9
S'CRAWLER'
p10
sS'First_name'
p11
S'Ivan'
p12
sS'Last_name'
p13
S'Trendafilov'
p14
sS'Sender'
p15
S'ivan.trendafilov@gmail.com'
p16
sg3
NsS'Receiver'
p17
NsS'Date'
p18
S'Mon Mar  5 19:38:46 2012'
p19
sS'Subject'
p20
S'You Won!'
p21
ssI1
(dp22
g7
S"Hello Ivan,\n\n\nYou say I've won the lottery, but I don't recall entering into that lottery. Through I often enter the National Lottery, I've only won very small prizes once in a while. How do I know this is real? I'm not very computer savvy, so forgive me if I sound not as confident.\n\nSo here's my brief introduction.\n\nFull name: Ethan Stokes\nOccupation: an accountant\nAddress: 21 Quay Street\nPostcode: M3 4AE\nCountry: UK\nPhone number: 07425902430\n\nAnd that's about it. But if you need to find out more, please ask me, and I'll try my best to answer.\n\n\nBefore we continue, please help me by answering a few questions.\nAre there any taxes that I need to pay on these winnings. If so, is there a way for me to avoid them?\nWhere are my winnings located?\n\n\nKind Regards,\nEthan Stokes\n\n\nOn Mon Mar  5 19:38:46 2012 <ivan.trendafilov@gmail.com> wrote:\n> \n> \n> BLACKBERRY 12TH ANNIVERSARY PROMOTION \n> \n> Blackberry Marketing Centre \n> 67 Shaftesbury Ave \n> Westminster, London \n> United Kingdom W1D 6 \n> \n> Dear Award winner, \n> \n> Winning Reference Number: BBWINXPWISA79822 \n> File number: BB255/647/390 \n> \n> This is to inform you that you have won an Amount of Eight hundred thousand British Pounds (?800,000.00 GBP) in the Blackberry 12th Anniversary Promotion as organized by the Marketing Centre of RIM\xae Inc, held in London, United Kingdom, \n> \n> BlackBerry is a line of mobile e-mail and Smartphone device developed and designed by Research In Motion (RIM\xae). The Marketing Centre of RIM\xae Inc selected your email address as one of the 120 lucky winners to benefit in this year's promotion. Funds MUST be claimed by the email owner ONLY, within 90 days from the day of notification. \n> \n> Please you are advised to file for your claim immediately through Mr. Ivan Trendafilov by providing him with the bellow stated information. Send the details to Email: ivan.trendafilov@gmail.com \n> \n> 1. Full name\x85\x85\x85\x85\x85\x85. \n> 2. Country of Residence\x85\x85\x85\x85\x85. \n> 3. Age\x85\x85\x85\x85\x85\x85\x85 \n> 4. Occupation\x85\x85\x85\x85\x85\x85.. \n> 5. Nationality \x85\x85\x85\x85\x85\x85 \n> 6. Mobile/Telephone/Fax Numbers\x85\x85\x85\x85\x85.. \n> 7. Alternative Email\x85\x85\x85\x85\x85. \n> \n> Fund Disbursement Manager: \n> Name: Mr. Ivan Trendafilov\n> Tel: +44 703-174-6799 \n> E-Mail: ivan.trendafilov@gmail.com \n> \n> Sincerely Yours, \n> \n> \n> \n> Dr. Ivan Trendafilov (Zonal Coordinator) \n> ------------------------------------------------------------------------------------------------------------------------ \n> After 12 years of establishment, Blackberry Inc is worth over US $43 Billion with over 1.5 Million workers worldwide making it the best of mobile e-mail and Smartphone devices developed and designed by Canadian company Research in Motion (RIM).\n> \n> ______________\n"
p23
sg9
S'SYSTEM'
p24
sg11
S'Ethan'
p25
sg13
S'Stokes'
p26
sg15
S'ethanstokes51@yahoo.co.uk'
p27
sg3
I01
sg17
g16
sg18
S'Mon Mar  5 19:38:52 2012'
p28
sg20
S'Re: You Won!'
p29
ssI2
(dp30
S'Body'
p31
S'Dear Ethan,\n\nThank you so much for getting back to me.\n\nI feel you should give me your affidavit, or punch yourself in the\nface. See what can you do?\n\nThanks,\nIvan'
p32
sS'Origin'
p33
S'IDENTITY'
p34
sS'First_name'
p35
NsS'Last_name'
p36
NsS'Sender'
p37
S'ivan.trendafilov@gmail.com'
p38
sS'Receiver'
p39
S'ethanstokes51@yahoo.co.uk'
p40
sS'Date'
p41
S'Mon, 5 Mar 2012 01:01:53 +0000'
p42
sS'PQ'
p43
NsS'Subject'
p44
S'Re: You Won!'
p45
sssS'Bucket'
p46
(lp47
S'webchks@att.net'
p48
aS'ivan.trendafilov@gmail.com'
p49
asS'State'
p50
I2
sS'Identity_ID'
p51
I0
sS'Class'
p52
S'lottery'
p53
ss.