(dp1
I0
(dp2
S'PQ'
p3
I01
sS'Messages'
p4
(dp5
I0
(dp6
S'Body'
p7
S"\n\nBLACKBERRY 12TH ANNIVERSARY PROMOTION \n\nBlackberry Marketing Centre \n67 Shaftesbury Ave \nWestminster, London \nUnited Kingdom W1D 6 \n\nDear Award winner, \n\nWinning Reference Number: BBWINXPWISA79822 \nFile number: BB255/647/390 \n\nThis is to inform you that you have won an Amount of Eight hundred thousand British Pounds (?800,000.00 GBP) in the Blackberry 12th Anniversary Promotion as organized by the Marketing Centre of RIM\xae Inc, held in London, United Kingdom, \n\nBlackBerry is a line of mobile e-mail and Smartphone device developed and designed by Research In Motion (RIM\xae). The Marketing Centre of RIM\xae Inc selected your email address as one of the 120 lucky winners to benefit in this year's promotion. Funds MUST be claimed by the email owner ONLY, within 90 days from the day of notification. \n\nPlease you are advised to file for your claim immediately through Mr. Ivan Trendafilov by providing him with the bellow stated information. Send the details to Email: ivan.trendafilov@gmail.com \n\n1. Full name\x85\x85\x85\x85\x85\x85. \n2. Country of Residence\x85\x85\x85\x85\x85. \n3. Age\x85\x85\x85\x85\x85\x85\x85 \n4. Occupation\x85\x85\x85\x85\x85\x85.. \n5. Nationality \x85\x85\x85\x85\x85\x85 \n6. Mobile/Telephone/Fax Numbers\x85\x85\x85\x85\x85.. \n7. Alternative Email\x85\x85\x85\x85\x85. \n\nFund Disbursement Manager: \nName: Mr. Ivan Trendafilov\nTel: +44 703-174-6799 \nE-Mail: ivan.trendafilov@gmail.com \n\nSincerely Yours, \n\n\n\nDr. Ivan Trendafilov (Zonal Coordinator) \n------------------------------------------------------------------------------------------------------------------------ \nAfter 12 years of establishment, Blackberry Inc is worth over US $43 Billion with over 1.5 Million workers worldwide making it the best of mobile e-mail and Smartphone devices developed and designed by Canadian company Research in Motion (RIM).\n\n______________\n"
p8
sS'Origin'
p9
S'CRAWLER'
p10
sS'First_name'
p11
S'Ivan'
p12
sS'Last_name'
p13
S'Trendafilov'
p14
sS'Sender'
p15
S'ivan.trendafilov@gmail.com'
p16
sg3
NsS'Receiver'
p17
NsS'Date'
p18
S'Sat Mar 10 17:48:45 2012'
p19
sS'Subject'
p20
S'You Won!'
p21
ssI1
(dp22
g7
S"Dear Ivan,\n\n\nWOOOOOWW!!!! I am literally jumping in my chair right now. This is truly amazing. THANK YOU SO MUCH. This is truly unbelievable. I cannot thank you enough.\n\nI would like to tell you first more about myself.\n\nFull name: Ethan Stokes\nOccupation: an accountant\nAddress: 21 Quay Street\nPostcode: M3 4AE\nCountry: UK\nPhone number: 07425902430\n\nSo I hope this answers your questions. If not, please feel free to ask.\n\n\nThis sounds so amazing, but I need to know the answers to a few questions.\nWhere are my winnings located?\nHow can I get the winnings delivered to me? Do I get a cheque, a wire transfer or some other method?\nHow do I claim the prize?\n\n\nRegards,\nEthan\n\n\nOn Sat Mar 10 17:48:45 2012 <ivan.trendafilov@gmail.com> wrote:\n> \n> \n> BLACKBERRY 12TH ANNIVERSARY PROMOTION \n> \n> Blackberry Marketing Centre \n> 67 Shaftesbury Ave \n> Westminster, London \n> United Kingdom W1D 6 \n> \n> Dear Award winner, \n> \n> Winning Reference Number: BBWINXPWISA79822 \n> File number: BB255/647/390 \n> \n> This is to inform you that you have won an Amount of Eight hundred thousand British Pounds (?800,000.00 GBP) in the Blackberry 12th Anniversary Promotion as organized by the Marketing Centre of RIM\xae Inc, held in London, United Kingdom, \n> \n> BlackBerry is a line of mobile e-mail and Smartphone device developed and designed by Research In Motion (RIM\xae). The Marketing Centre of RIM\xae Inc selected your email address as one of the 120 lucky winners to benefit in this year's promotion. Funds MUST be claimed by the email owner ONLY, within 90 days from the day of notification. \n> \n> Please you are advised to file for your claim immediately through Mr. Ivan Trendafilov by providing him with the bellow stated information. Send the details to Email: ivan.trendafilov@gmail.com \n> \n> 1. Full name\x85\x85\x85\x85\x85\x85. \n> 2. Country of Residence\x85\x85\x85\x85\x85. \n> 3. Age\x85\x85\x85\x85\x85\x85\x85 \n> 4. Occupation\x85\x85\x85\x85\x85\x85.. \n> 5. Nationality \x85\x85\x85\x85\x85\x85 \n> 6. Mobile/Telephone/Fax Numbers\x85\x85\x85\x85\x85.. \n> 7. Alternative Email\x85\x85\x85\x85\x85. \n> \n> Fund Disbursement Manager: \n> Name: Mr. Ivan Trendafilov\n> Tel: +44 703-174-6799 \n> E-Mail: ivan.trendafilov@gmail.com \n> \n> Sincerely Yours, \n> \n> \n> \n> Dr. Ivan Trendafilov (Zonal Coordinator) \n> ------------------------------------------------------------------------------------------------------------------------ \n> After 12 years of establishment, Blackberry Inc is worth over US $43 Billion with over 1.5 Million workers worldwide making it the best of mobile e-mail and Smartphone devices developed and designed by Canadian company Research in Motion (RIM).\n> \n> ______________\n"
p23
sg9
S'SYSTEM'
p24
sg11
S'Ethan'
p25
sg13
S'Stokes'
p26
sg15
S'ethanstokes51@yahoo.co.uk'
p27
sg3
I01
sg17
g16
sg18
S'Sat Mar 10 17:48:53 2012'
p28
sg20
S'Re: You Won!'
p29
ssI2
(dp30
S'Body'
p31
S'Hi Ethan,\n\nHow is life? I am thinking about scheming you with my affidavit.\n\nPlease contact my colleague\nMr. Evan Trendafilov\nEmail: i.v.antrendafilov@gmail.com\n\nIs that ok?\n\nThanks,\nIvan'
p32
sS'Origin'
p33
S'IDENTITY'
p34
sS'First_name'
p35
S'Evan'
p36
sS'Last_name'
p37
S'Trendafilov'
p38
sS'Sender'
p39
S'i.v.antrendafilov@gmail.com'
p40
sS'PQ'
p41
NsS'Receiver'
p42
S'ethanstokes51@yahoo.co.uk'
p43
sS'Date'
p44
S'Sat, 10 Mar 2012 17:52:04 +0000'
p45
sS'Subject'
p46
S'Re: You Won!'
p47
ssI3
(dp48
g31
S"Dear Evan,\n\n\nI am glad to hear back from you.\n\nI cannot believe it is not butter!\n\nI'm going to tell you a story. It is about a young girl in NYC.\n\nWarm Regards,\nEthan\n\n\nOn Sat, 10 Mar 2012 17:52:04 +0000 <i.v.antrendafilov@gmail.com> wrote:\n> Hi Ethan,\n> \n> How is life? I am thinking about scheming you with my affidavit.\n> \n> Please contact my colleague\n> Mr. Evan Trendafilov\n> Email: i.v.antrendafilov@gmail.com\n> \n> Is that ok?\n> \n> Thanks,\n> Ivan\n"
p49
sg33
S'SYSTEM'
p50
sg35
S'Ethan'
p51
sg37
S'Stokes'
p52
sg39
g43
sg41
I00
sg42
g40
sg44
S'Sat Mar 10 17:52:34 2012'
p53
sg46
S'Re: Re: You Won!'
p54
ssI4
(dp55
g31
g32
sg33
g34
sg35
Nsg37
Nsg39
S'ivan.trendafilov@gmail.com'
p56
sg41
Nsg42
g43
sg44
g45
sg46
g47
ssI5
(dp57
g31
S"Hello,\n\n\nI cannot believe it is not butter!\n\nI'm going to tell you a story. It is about a young girl in NYC.\n\nThanks,\nEthan Stokes\n\n\nOn Sat, 10 Mar 2012 17:52:04 +0000 <ivan.trendafilov@gmail.com> wrote:\n> Hi Ethan,\n> \n> How is life? I am thinking about scheming you with my affidavit.\n> \n> Please contact my colleague\n> Mr. Evan Trendafilov\n> Email: i.v.antrendafilov@gmail.com\n> \n> Is that ok?\n> \n> Thanks,\n> Ivan\n"
p58
sg33
g50
sg35
g51
sg37
g52
sg39
g43
sg41
I00
sg42
g56
sg44
S'Sat Mar 10 17:52:36 2012'
p59
sg46
S'Re: Re: You Won!'
p60
sssS'Bucket'
p61
(lp62
S'i.v.antrendafilov@gmail.com'
p63
aS'ivan.trendafilov@gmail.com'
p64
asS'State'
p65
S'CLOSED'
p66
sS'Identity_ID'
p67
I0
sS'Class'
p68
S'lottery'
p69
ssI1
(dp70
S'PQ'
p71
I00
sS'Messages'
p72
(dp73
I0
(dp74
S'Body'
p75
S'\nHello,\n\nLottery.\n\nThanks,\nIvan\n\n-- \nThe University of Edinburgh is a charitable body, registered in\nScotland, with registration number SC005336.\n'
p76
sS'Origin'
p77
S'IDENTITY'
p78
sS'First_name'
p79
S''
sS'Last_name'
p80
S'Ivan'
p81
sS'Sender'
p82
S'I.Trendafilov@sms.ed.ac.uk'
p83
sS'Receiver'
p84
S'ethanstokes51@yahoo.co.uk'
p85
sS'Date'
p86
S'Sat Mar 10 17:55:57 2012'
p87
sg71
NsS'Subject'
p88
S'Hello!'
p89
ssI1
(dp90
g75
S'Hello,\n\n\nWOOOOOWW!!!! I am literally jumping in my chair right now. This is truly amazing. THANK YOU SO MUCH. This is truly unbelievable. I cannot thank you enough.\nPlease allow me to ask a few questions.\nHow do I know I can trust you?\nIs there anything I can do to thank you for this fortune?\nHow can I get the winnings delivered to me? Do I get a cheque, a wire transfer or some other method?\n\n\nThank you,\nEthan Stokes\n\n\nOn Sat Mar 10 17:55:57 2012 <I.Trendafilov@sms.ed.ac.uk> wrote:\n> \n> Hello,\n> \n> Lottery.\n> \n> Thanks,\n> Ivan\n> \n> -- \n> The University of Edinburgh is a charitable body, registered in\n> Scotland, with registration number SC005336.\n'
p91
sg77
S'SYSTEM'
p92
sg79
S'Ethan'
p93
sg80
S'Stokes'
p94
sg82
S'ethanstokes51@yahoo.co.uk'
p95
sg84
g83
sg86
S'Sat Mar 10 17:56:07 2012'
p96
sg71
I00
sg88
S'Re: Hello!'
p97
sssS'Bucket'
p98
(lp99
S'i.trendafilov@sms.ed.ac.uk'
p100
asS'State'
p101
I1
sS'Identity_ID'
p102
I0
sS'Class'
p103
S'lottery'
p104
ss.