(dp1
I0
(dp2
S'PQ'
p3
I01
sS'Messages'
p4
(dp5
I0
(dp6
S'Body'
p7
S"\n\nBLACKBERRY 12TH ANNIVERSARY PROMOTION \n\nBlackberry Marketing Centre \n67 Shaftesbury Ave \nWestminster, London \nUnited Kingdom W1D 6 \n\nDear Award winner, \n\nWinning Reference Number: BBWINXPWISA79822 \nFile number: BB255/647/390 \n\nThis is to inform you that you have won an Amount of Eight hundred thousand British Pounds (?800,000.00 GBP) in the Blackberry 12th Anniversary Promotion as organized by the Marketing Centre of RIM\xae Inc, held in London, United Kingdom, \n\nBlackBerry is a line of mobile e-mail and Smartphone device developed and designed by Research In Motion (RIM\xae). The Marketing Centre of RIM\xae Inc selected your email address as one of the 120 lucky winners to benefit in this year's promotion. Funds MUST be claimed by the email owner ONLY, within 90 days from the day of notification. \n\nPlease you are advised to file for your claim immediately through Mr. Ivan Trendafilov by providing him with the bellow stated information. Send the details to Email: ivan.trendafilov@gmail.com \n\n1. Full name\x85\x85\x85\x85\x85\x85. \n2. Country of Residence\x85\x85\x85\x85\x85. \n3. Age\x85\x85\x85\x85\x85\x85\x85 \n4. Occupation\x85\x85\x85\x85\x85\x85.. \n5. Nationality \x85\x85\x85\x85\x85\x85 \n6. Mobile/Telephone/Fax Numbers\x85\x85\x85\x85\x85.. \n7. Alternative Email\x85\x85\x85\x85\x85. \n\nFund Disbursement Manager: \nName: Mr. Ivan Trendafilov\nTel: +44 703-174-6799 \nE-Mail: ivan.trendafilov@gmail.com \n\nSincerely Yours, \n\n\n\nDr. Ivan Trendafilov (Zonal Coordinator) \n------------------------------------------------------------------------------------------------------------------------ \nAfter 12 years of establishment, Blackberry Inc is worth over US $43 Billion with over 1.5 Million workers worldwide making it the best of mobile e-mail and Smartphone devices developed and designed by Canadian company Research in Motion (RIM).\n\n______________\n"
p8
sS'Origin'
p9
S'CRAWLER'
p10
sS'First_name'
p11
S'Ivan'
p12
sS'Last_name'
p13
S'Trendafilov'
p14
sS'Sender'
p15
S'ivan.trendafilov@gmail.com'
p16
sS'Receiver'
p17
NsS'Date'
p18
S'Sun Mar 11 18:42:39 2012'
p19
sg3
NsS'Subject'
p20
S'You Won!'
p21
ssI1
(dp22
g7
S"Hello Ivan,\n\n\nThank you so much! This is excellent news!!! I am thankful to God for this great fortunate. I cannot explain how I feel right now. And this comes in a time of great distress and insecurity for my family. May God bless you!\n\nSo here's my brief introduction.\n\nFull name: Patrick Turner\nOccupation: a sales assistant\nAddress: 83 King Street\nPostcode: M2 4AH\nCountry: UK\nPhone number: 07154942360\n\nSo, that's me in short. Thanks for asking.\n\n\nPlease allow me to ask a few questions.\nHow can I get the winnings delivered to me? Do I get a cheque, a wire transfer or some other method?\nIs there anything I can do to thank you for this fortune?\nHow do I know I can trust you?\n\n\nBest Wishes,\nPatrick\n\n\nOn Sun Mar 11 18:42:39 2012 <ivan.trendafilov@gmail.com> wrote:\n> \n> \n> BLACKBERRY 12TH ANNIVERSARY PROMOTION \n> \n> Blackberry Marketing Centre \n> 67 Shaftesbury Ave \n> Westminster, London \n> United Kingdom W1D 6 \n> \n> Dear Award winner, \n> \n> Winning Reference Number: BBWINXPWISA79822 \n> File number: BB255/647/390 \n> \n> This is to inform you that you have won an Amount of Eight hundred thousand British Pounds (?800,000.00 GBP) in the Blackberry 12th Anniversary Promotion as organized by the Marketing Centre of RIM\xae Inc, held in London, United Kingdom, \n> \n> BlackBerry is a line of mobile e-mail and Smartphone device developed and designed by Research In Motion (RIM\xae). The Marketing Centre of RIM\xae Inc selected your email address as one of the 120 lucky winners to benefit in this year's promotion. Funds MUST be claimed by the email owner ONLY, within 90 days from the day of notification. \n> \n> Please you are advised to file for your claim immediately through Mr. Ivan Trendafilov by providing him with the bellow stated information. Send the details to Email: ivan.trendafilov@gmail.com \n> \n> 1. Full name\x85\x85\x85\x85\x85\x85. \n> 2. Country of Residence\x85\x85\x85\x85\x85. \n> 3. Age\x85\x85\x85\x85\x85\x85\x85 \n> 4. Occupation\x85\x85\x85\x85\x85\x85.. \n> 5. Nationality \x85\x85\x85\x85\x85\x85 \n> 6. Mobile/Telephone/Fax Numbers\x85\x85\x85\x85\x85.. \n> 7. Alternative Email\x85\x85\x85\x85\x85. \n> \n> Fund Disbursement Manager: \n> Name: Mr. Ivan Trendafilov\n> Tel: +44 703-174-6799 \n> E-Mail: ivan.trendafilov@gmail.com \n> \n> Sincerely Yours, \n> \n> \n> \n> Dr. Ivan Trendafilov (Zonal Coordinator) \n> ------------------------------------------------------------------------------------------------------------------------ \n> After 12 years of establishment, Blackberry Inc is worth over US $43 Billion with over 1.5 Million workers worldwide making it the best of mobile e-mail and Smartphone devices developed and designed by Canadian company Research in Motion (RIM).\n> \n> ______________\n"
p23
sg9
S'SYSTEM'
p24
sg11
S'Patrick'
p25
sg13
S'Turner'
p26
sg15
S'patrick.turner1@gmx.com'
p27
sg17
g16
sg18
S'Sun Mar 11 18:42:55 2012'
p28
sg3
I01
sg20
S'Re: You Won!'
p29
sssS'Bucket'
p30
(lp31
S'ivan.trendafilov@gmail.com'
p32
asS'State'
p33
I1
sS'Identity_ID'
p34
I1
sS'Class'
p35
S'lottery'
p36
ss.