(lp1
S'ac05d2a1a86d692fc5ca48400103f832e1b92a64971521be135d6872'
p2
aS'e74f40457b9887e21b7398c4200651fdfa0e5db7644e58b6d022c9a8'
p3
aS'3ec8c97f21581887e4c287de69f8f444c97d34e177829f15377d83c9'
p4
aS'f8ed95def4cbbf23fe7933ee5cb8633f819baf05e633db1205a91642'
p5
aS'295c41b1b2d64b260765606199de87788adc439c0543d6f7ecba99a7'
p6
aS'2c93df83d4971d53ef24423e4f705e8dac3c564c0126941167f1b125'
p7
aS'29fde579a43896eac704ced1f021a1010b5ea392cdd4bdfff570bd32'
p8
aS'55a35e2365d9e6161250ecfd28807dac4be29708cbdefe71776cc848'
p9
aS'd7c2f802a8a8cabd4ae69a30dede32a3bdc6c9a36a59ee972079c4d6'
p10
a.