(lp1
S'ac05d2a1a86d692fc5ca48400103f832e1b92a64971521be135d6872'
p2
aS'e74f40457b9887e21b7398c4200651fdfa0e5db7644e58b6d022c9a8'
p3
aS'3ec8c97f21581887e4c287de69f8f444c97d34e177829f15377d83c9'
p4
aS'f8ed95def4cbbf23fe7933ee5cb8633f819baf05e633db1205a91642'
p5
aS'295c41b1b2d64b260765606199de87788adc439c0543d6f7ecba99a7'
p6
aS'2c93df83d4971d53ef24423e4f705e8dac3c564c0126941167f1b125'
p7
aS'29fde579a43896eac704ced1f021a1010b5ea392cdd4bdfff570bd32'
p8
aS'55a35e2365d9e6161250ecfd28807dac4be29708cbdefe71776cc848'
p9
aS'd7c2f802a8a8cabd4ae69a30dede32a3bdc6c9a36a59ee972079c4d6'
p10
aS'ef7ec6347a164524c22146eac42eab3a4467894fd6ac09024d052d73'
p11
aS'151422a634b66df548d9b52dc1d5d8932fef52b6b9e2d0d7cdc19aaf'
p12
aS'4d661b467bdd027b665d1a22dd711c9774ab576ecf5257dfd21a9ff2'
p13
aS'00db129072745b73517a50b9cf096c547541241b86b8b78abb176b09'
p14
aS'356ce551acba89b11ad83d976078664f6288a79899025454af0f314e'
p15
aS'731f6b0fc2c9687db58463a9feb18b963362a6a03b3721ec2d10a911'
p16
aS'7bf244d6d9cf3e0402b55e3d78d2437b8a83ade34672ddbfb75c6375'
p17
aS'96da5d16280571294b02c6c707f8537001e074cc7b8d78664d976430'
p18
a.