(dp1
I0
(dp2
S'Body'
p3
S'\nPLEASE, VERY URGENT!!! \n\nReply me through this email rafiulajombo@postafiok.hu \n\nDear Friend, \n\nHow Are You? I Know That This Mail May Come To You Almost A Surprise As We Never Met Before And Please Before You Proceed Reading This mail,This Is True and not An Joke, Well I Saw Your Contact Email From Burkina Faso Chambers Of Commerce, After Much Consideration I Decided To Write You Since I Cannot Be Able To See You Face To Face For Now, At First I Strongly Believed That Any Information Received From The Chambers Of Commerce Office Is Correct And Must Be Trusted. But Never Mind, I Am From (Burkina Faso West Africa) Mr.Rafiula Jombo By Name, An Auditing Debt Manager In Our Bank Here (Bank Of Africa). \n\nI Have An Opportunity To The Sum Of Ten Millions, Five Hundred Thousand United States Dollars (US$10.500, 000.00), To Transfer Into Your Nominated Bank Account (The Owner Of The Money) Is An. IRAQ. Who Died A Long With His Entire Family During The Iraq War, Upon Your Reply And Interest To Receive This Fund On My Behalf, I Will Kindly Send You More Details On The Execution Of This Transaction Will Commence, Now I Urge You To Take This Message Seriously And With An Open Mind.So Please Give It A Benefit Of Doubt,And With Good Faith And Trust Join Me And I am Assuring You Now That You Will Never Be Disappointed.Now My Questions Are:Can You Handle This Project With Me? Can I Give You This Trust? Respond Back To Me Or Delete It Off If You Are Not Interested. \n\nYou May View The Website: \n\nhttp://www.cnn.com/2006/WORLD/meast/10/11/iraq.deaths/ \n\nIf You Accept This Offer To Work With Me, And You Find This Proposal Suitable For You Do Furnish Me With The Following Information. \n\nYour Full Name................... \nYour Country................ \nYour Private Telephone............... \nYour Age and Sex.................... \nYour Occupation............... \n\nI Will Appreciate It Very Much, If This Proposal Is Acceptable By You, Do Not Make Undue Advantage Of The Trust I Have Bestowed On You, And I Assure You We Can Achieve It Successfully. \n\nReply me through this email rafiulajombo@postafiok.hu \n\nThis Is My Private Phone Number 00226 74 71 07 53.You Can Call Me For More Explanation. \n\nRespectfully \nMr.Rafiula Jombo, \nAn Auditing Debt Manager Of Bank Of Africa\n'
p4
sS'First_name'
p5
S'Rafiula'
p6
sS'Last_name'
p7
S'Jombo'
p8
sS'To'
p9
NsS'Date'
p10
S'Sat Mar 10 18:26:44 2012'
p11
sS'Reply-To'
p12
S'rafiulajombo@postafiok.hu'
p13
sS'Subject'
p14
S'PLEASE, VERY URGENT!!!'
p15
ss.